target datalayout = "e-m:e-p270:32:32-p271:32:32-p272:64:64-i64:64-i128:128-f80:128-n8:16:32:64-S128"
target triple = "x86_64-pc-linux-gnu"

%struct.slurm_submit_ops = type { ptr, ptr }
%struct.timeval = type { i64, i64 }
%struct.job_descriptor = type { ptr, ptr, ptr, ptr, i16, i32, i32, ptr, ptr, ptr, ptr, i64, i64, ptr, ptr, ptr, ptr, i16, ptr, ptr, i16, ptr, i16, i32, i32, i32, ptr, ptr, i64, i32, ptr, i64, ptr, %struct.slurm_hash_t, i32, ptr, ptr, ptr, i64, i64, i32, i32, ptr, i16, i32, ptr, ptr, i16, ptr, ptr, i16, ptr, ptr, ptr, i16, ptr, ptr, ptr, i32, i32, i16, i8, ptr, i16, i8, ptr, i16, ptr, i32, i32, ptr, i16, ptr, i16, ptr, i16, ptr, i16, ptr, ptr, %struct.slurm_hash_t, i16, i32, ptr, i32, ptr, i32, i32, i32, ptr, ptr, ptr, ptr, ptr, ptr, i32, i16, i16, i16, i16, ptr, i16, i32, i32, i32, i32, i16, i16, i16, i16, i16, i16, i16, i16, i16, i16, i16, i64, i32, ptr, i32, i16, ptr, ptr, ptr, ptr, ptr, i32, ptr, i16, ptr, ptr, i16 }
%struct.slurm_hash_t = type { i8, [32 x i8] }

@g_context_cnt = internal global i32 -1, align 4
@ops = internal global ptr null, align 8
@.str.7 = private unnamed_addr constant [32 x i8] c"%s: pthread_rwlock_unlock(): %m\00", align 1
@.str.8 = private unnamed_addr constant [32 x i8] c"%s: pthread_rwlock_rdlock(): %m\00", align 1
@__func__.job_submit_g_modify = private unnamed_addr constant [20 x i8] c"job_submit_g_modify\00", align 1
@context_lock = internal global { { i32, i32, i32, i32, i32, i32, i32, i32, i8, [7 x i8], i64, i32, [4 x i8] } } zeroinitializer, align 8

; Function Attrs: nounwind uwtable
define dso_local i32 @job_submit_g_modify(ptr noundef %0, ptr noundef %1, i32 noundef %2, ptr noundef %3) #0 {
  %5 = alloca ptr, align 8
  %6 = alloca ptr, align 8
  %7 = alloca i32, align 4
  %8 = alloca ptr, align 8
  %9 = alloca %struct.timeval, align 8
  %10 = alloca %struct.timeval, align 8
  %11 = alloca [20 x i8], align 16
  %12 = alloca i64, align 8
  %13 = alloca i32, align 4
  %14 = alloca i32, align 4
  %15 = alloca i32, align 4
  %16 = alloca i32, align 4
  store ptr %0, ptr %5, align 8
  store ptr %1, ptr %6, align 8
  store i32 %2, ptr %7, align 4
  store ptr %3, ptr %8, align 8
  call void @llvm.lifetime.start.p0(i64 16, ptr %9) #7
  call void @llvm.lifetime.start.p0(i64 16, ptr %10) #7
  call void @llvm.lifetime.start.p0(i64 20, ptr %11) #7
  call void @llvm.memset.p0.i64(ptr align 16 %11, i8 0, i64 20, i1 false)
  call void @llvm.lifetime.start.p0(i64 8, ptr %12) #7
  call void @llvm.lifetime.start.p0(i64 4, ptr %13) #7
  call void @llvm.lifetime.start.p0(i64 4, ptr %14) #7
  store i32 0, ptr %14, align 4
  %17 = call i32 @gettimeofday(ptr noundef %9, ptr noundef null) #7
  %18 = load ptr, ptr %5, align 8
  %19 = getelementptr inbounds nuw %struct.job_descriptor, ptr %18, i32 0, i32 82
  store i32 -2, ptr %19, align 4
  br label %20

20:                                               ; preds = %4
  call void @llvm.lifetime.start.p0(i64 4, ptr %15) #7
  %21 = call i32 @pthread_rwlock_rdlock(ptr noundef @context_lock) #7
  store i32 %21, ptr %15, align 4
  %22 = load i32, ptr %15, align 4
  %23 = icmp ne i32 %22, 0
  br i1 %23, label %24, label %27

24:                                               ; preds = %20
  %25 = load i32, ptr %15, align 4
  %26 = call ptr @__errno_location() #8
  store i32 %25, ptr %26, align 4
  call void (ptr, ...) @fatal_abort(ptr noundef @.str.8, ptr noundef @__func__.job_submit_g_modify) #9
  unreachable

27:                                               ; preds = %20
  call void @llvm.lifetime.end.p0(i64 4, ptr %15) #7
  br label %28

28:                                               ; preds = %27
  br label %29

29:                                               ; preds = %28
  store i32 0, ptr %13, align 4
  br label %30

30:                                               ; preds = %51, %29
  %31 = load i32, ptr %13, align 4
  %32 = load i32, ptr @g_context_cnt, align 4
  %33 = icmp slt i32 %31, %32
  br i1 %33, label %34, label %37

34:                                               ; preds = %30
  %35 = load i32, ptr %14, align 4
  %36 = icmp eq i32 %35, 0
  br label %37

37:                                               ; preds = %34, %30
  %38 = phi i1 [ false, %30 ], [ %36, %34 ]
  br i1 %38, label %39, label %54

39:                                               ; preds = %37
  %40 = load ptr, ptr @ops, align 8
  %41 = load i32, ptr %13, align 4
  %42 = sext i32 %41 to i64
  %43 = getelementptr inbounds %struct.slurm_submit_ops, ptr %40, i64 %42
  %44 = getelementptr inbounds nuw %struct.slurm_submit_ops, ptr %43, i32 0, i32 1
  %45 = load ptr, ptr %44, align 8
  %46 = load ptr, ptr %5, align 8
  %47 = load ptr, ptr %6, align 8
  %48 = load i32, ptr %7, align 4
  %49 = load ptr, ptr %8, align 8
  %50 = call i32 %45(ptr noundef %46, ptr noundef %47, i32 noundef %48, ptr noundef %49)
  store i32 %50, ptr %14, align 4
  br label %51

51:                                               ; preds = %39
  %52 = load i32, ptr %13, align 4
  %53 = add nsw i32 %52, 1
  store i32 %53, ptr %13, align 4
  br label %30, !llvm.loop !15

54:                                               ; preds = %37
  br label %55

55:                                               ; preds = %54
  call void @llvm.lifetime.start.p0(i64 4, ptr %16) #7
  %56 = call i32 @pthread_rwlock_unlock(ptr noundef @context_lock) #7
  store i32 %56, ptr %16, align 4
  %57 = load i32, ptr %16, align 4
  %58 = icmp ne i32 %57, 0
  br i1 %58, label %59, label %62

59:                                               ; preds = %55
  %60 = load i32, ptr %16, align 4
  %61 = call ptr @__errno_location() #8
  store i32 %60, ptr %61, align 4
  call void (ptr, ...) @fatal_abort(ptr noundef @.str.7, ptr noundef @__func__.job_submit_g_modify) #9
  unreachable

62:                                               ; preds = %55
  call void @llvm.lifetime.end.p0(i64 4, ptr %16) #7
  br label %63

63:                                               ; preds = %62
  br label %64

64:                                               ; preds = %63
  br label %65

65:                                               ; preds = %64
  %66 = call i32 @gettimeofday(ptr noundef %10, ptr noundef null) #7
  %67 = getelementptr inbounds [20 x i8], ptr %11, i64 0, i64 0
  call void @slurm_diff_tv_str(ptr noundef %9, ptr noundef %10, ptr noundef %67, i32 noundef 20, ptr noundef @__func__.job_submit_g_modify, i64 noundef 0, ptr noundef %12)
  br label %68

68:                                               ; preds = %65
  br label %69

69:                                               ; preds = %68
  %70 = load i32, ptr %14, align 4
  call void @llvm.lifetime.end.p0(i64 4, ptr %14) #7
  call void @llvm.lifetime.end.p0(i64 4, ptr %13) #7
  call void @llvm.lifetime.end.p0(i64 8, ptr %12) #7
  call void @llvm.lifetime.end.p0(i64 20, ptr %11) #7
  call void @llvm.lifetime.end.p0(i64 16, ptr %10) #7
  call void @llvm.lifetime.end.p0(i64 16, ptr %9) #7
  ret i32 %70
}